; Function Attrs: mustprogress nofree nosync nounwind memory(readwrite, inaccessiblemem: none) uwtable
define internal fastcc void @_ZSt21__inplace_stable_sortIN9__gnu_cxx17__normal_iteratorIPN12_GLOBAL__N_121X86FrameSortingObjectESt6vectorIS3_SaIS3_EEEENS0_5__ops15_Iter_comp_iterINS2_25X86FrameSortingComparatorEEEEvT_SD_T0_(ptr %0, ptr %1) unnamed_addr #15 {
  %3 = ptrtoint ptr %1 to i64
  %4 = ptrtoint ptr %0 to i64
  %5 = sub i64 %3, %4
  %6 = icmp slt i64 %5, 300
  br i1 %6, label %common.ret, label %7

common.ret:                                       ; preds = %2
  tail call fastcc void @_ZSt16__insertion_sortIN9__gnu_cxx17__normal_iteratorIPN12_GLOBAL__N_121X86FrameSortingObjectESt6vectorIS3_SaIS3_EEEENS0_5__ops15_Iter_comp_iterINS2_25X86FrameSortingComparatorEEEEvT_SD_T0_(ptr %0, ptr %1)
  br label %common.ret27

common.ret27:                                     ; preds = %7, %common.ret
  ret void

7:                                                ; preds = %2
  %8 = udiv exact i64 %5, 20
  %9 = lshr i64 %8, 1
  %10 = getelementptr inbounds %"struct.(anonymous namespace)::X86FrameSortingObject", ptr %0, i64 %9
  tail call fastcc void @_ZSt21__inplace_stable_sortIN9__gnu_cxx17__normal_iteratorIPN12_GLOBAL__N_121X86FrameSortingObjectESt6vectorIS3_SaIS3_EEEENS0_5__ops15_Iter_comp_iterINS2_25X86FrameSortingComparatorEEEEvT_SD_T0_(ptr %0, ptr %10)
  tail call fastcc void @_ZSt21__inplace_stable_sortIN9__gnu_cxx17__normal_iteratorIPN12_GLOBAL__N_121X86FrameSortingObjectESt6vectorIS3_SaIS3_EEEENS0_5__ops15_Iter_comp_iterINS2_25X86FrameSortingComparatorEEEEvT_SD_T0_(ptr %10, ptr %1)
  %11 = ptrtoint ptr %10 to i64
  %12 = sub i64 %3, %11
  %13 = sdiv exact i64 %12, 20
  tail call fastcc void @_ZSt22__merge_without_bufferIN9__gnu_cxx17__normal_iteratorIPN12_GLOBAL__N_121X86FrameSortingObjectESt6vectorIS3_SaIS3_EEEElNS0_5__ops15_Iter_comp_iterINS2_25X86FrameSortingComparatorEEEEvT_SD_SD_T0_SE_T1_(ptr %0, ptr %10, ptr %1, i64 noundef %9, i64 noundef %13)
  br label %common.ret27
}